; Function Attrs: nounwind uwtable
define internal fastcc i32 @ftp_state_loggedin(ptr noundef %0) unnamed_addr #0 {
  %2 = getelementptr inbounds nuw i8, ptr %0, i64 24
  %3 = load ptr, ptr %2, align 8, !tbaa !105
  %4 = getelementptr inbounds nuw i8, ptr %3, i64 952
  %5 = load i64, ptr %4, align 8
  %6 = and i64 %5, 262144
  %.not = icmp eq i64 %6, 0
  %7 = getelementptr inbounds nuw i8, ptr %3, i64 1088
  br i1 %.not, label %32, label %8

8:                                                ; preds = %1
  %9 = tail call i32 (ptr, ptr, ptr, ...) @Curl_pp_sendf(ptr noundef nonnull %0, ptr noundef nonnull %7, ptr noundef nonnull @.str.69, i32 noundef 0) #10
  %.not9 = icmp eq i32 %9, 0
  br i1 %.not9, label %10, label %ftp_state_pwd.exit

10:                                               ; preds = %8
  %11 = load ptr, ptr %2, align 8, !tbaa !105
  %12 = getelementptr inbounds nuw i8, ptr %11, i64 1358
  %13 = load i8, ptr %12, align 2, !tbaa !136
  %.not11 = icmp eq i8 %13, 6
  br i1 %.not11, label %_ftp_state.exit, label %14

14:                                               ; preds = %10
  %15 = getelementptr inbounds nuw i8, ptr %0, i64 2658
  %16 = load i64, ptr %15, align 2
  %17 = and i64 %16, 2147483648
  %.not.i = icmp eq i64 %17, 0
  br i1 %.not.i, label %_ftp_state.exit, label %18

18:                                               ; preds = %14
  %19 = getelementptr inbounds nuw i8, ptr %0, i64 4864
  %20 = load ptr, ptr %19, align 8, !tbaa !102
  %.not20.i = icmp eq ptr %20, null
  br i1 %.not20.i, label %27, label %21

21:                                               ; preds = %18
  %22 = getelementptr inbounds nuw i8, ptr %20, i64 8
  %23 = load i32, ptr %22, align 8, !tbaa !103
  %24 = icmp sgt i32 %23, 0
  %25 = load i32, ptr getelementptr inbounds nuw (i8, ptr @Curl_trc_feat_ftp, i64 8), align 8
  %26 = icmp sgt i32 %25, 0
  %or.cond.i = select i1 %24, i1 %26, i1 false
  br i1 %or.cond.i, label %28, label %_ftp_state.exit

27:                                               ; preds = %18
  %.old.i = load i32, ptr getelementptr inbounds nuw (i8, ptr @Curl_trc_feat_ftp, i64 8), align 8, !tbaa !103
  %.old1.i = icmp sgt i32 %.old.i, 0
  br i1 %.old1.i, label %28, label %_ftp_state.exit

28:                                               ; preds = %27, %21
  %29 = zext i8 %13 to i64
  %30 = getelementptr inbounds nuw [35 x ptr], ptr @ftp_state_names, i64 0, i64 %29
  %31 = load ptr, ptr %30, align 8, !tbaa !7
  tail call void (ptr, ptr, ...) @Curl_trc_ftp(ptr noundef nonnull %0, ptr noundef nonnull @.str.7, ptr noundef %31, ptr noundef nonnull @.str.15) #10
  br label %_ftp_state.exit

_ftp_state.exit:                                  ; preds = %10, %14, %21, %27, %28
  store i8 6, ptr %12, align 2, !tbaa !136
  br label %ftp_state_pwd.exit

32:                                               ; preds = %1
  %33 = tail call i32 (ptr, ptr, ptr, ...) @Curl_pp_sendf(ptr noundef nonnull %0, ptr noundef nonnull %7, ptr noundef nonnull @.str.51, ptr noundef nonnull @.str.18) #10
  %.not.i10 = icmp eq i32 %33, 0
  br i1 %.not.i10, label %34, label %ftp_state_pwd.exit

34:                                               ; preds = %32
  %35 = load ptr, ptr %2, align 8, !tbaa !105
  %36 = getelementptr inbounds nuw i8, ptr %35, i64 1358
  %37 = load i8, ptr %36, align 2, !tbaa !136
  %.not12 = icmp eq i8 %37, 9
  br i1 %.not12, label %_ftp_state.exit.i, label %38

38:                                               ; preds = %34
  %39 = getelementptr inbounds nuw i8, ptr %0, i64 2658
  %40 = load i64, ptr %39, align 2
  %41 = and i64 %40, 2147483648
  %.not.i.i = icmp eq i64 %41, 0
  br i1 %.not.i.i, label %_ftp_state.exit.i, label %42

42:                                               ; preds = %38
  %43 = getelementptr inbounds nuw i8, ptr %0, i64 4864
  %44 = load ptr, ptr %43, align 8, !tbaa !102
  %.not20.i.i = icmp eq ptr %44, null
  br i1 %.not20.i.i, label %51, label %45

45:                                               ; preds = %42
  %46 = getelementptr inbounds nuw i8, ptr %44, i64 8
  %47 = load i32, ptr %46, align 8, !tbaa !103
  %48 = icmp sgt i32 %47, 0
  %49 = load i32, ptr getelementptr inbounds nuw (i8, ptr @Curl_trc_feat_ftp, i64 8), align 8
  %50 = icmp sgt i32 %49, 0
  %or.cond.i.i = select i1 %48, i1 %50, i1 false
  br i1 %or.cond.i.i, label %52, label %_ftp_state.exit.i

51:                                               ; preds = %42
  %.old.i.i = load i32, ptr getelementptr inbounds nuw (i8, ptr @Curl_trc_feat_ftp, i64 8), align 8, !tbaa !103
  %.old1.i.i = icmp sgt i32 %.old.i.i, 0
  br i1 %.old1.i.i, label %52, label %_ftp_state.exit.i

52:                                               ; preds = %51, %45
  %53 = zext i8 %37 to i64
  %54 = getelementptr inbounds nuw [35 x ptr], ptr @ftp_state_names, i64 0, i64 %53
  %55 = load ptr, ptr %54, align 8, !tbaa !7
  tail call void (ptr, ptr, ...) @Curl_trc_ftp(ptr noundef nonnull %0, ptr noundef nonnull @.str.7, ptr noundef %55, ptr noundef nonnull @.str.18) #10
  br label %_ftp_state.exit.i

_ftp_state.exit.i:                                ; preds = %52, %51, %45, %38, %34
  store i8 9, ptr %36, align 2, !tbaa !136
  br label %ftp_state_pwd.exit

ftp_state_pwd.exit:                               ; preds = %_ftp_state.exit.i, %32, %8, %_ftp_state.exit
  %.0 = phi i32 [ %9, %8 ], [ 0, %_ftp_state.exit ], [ %33, %32 ], [ 0, %_ftp_state.exit.i ]
  ret i32 %.0
}